target datalayout = "e-m:e-p270:32:32-p271:32:32-p272:64:64-i64:64-i128:128-f80:128-n8:16:32:64-S128"
target triple = "x86_64-pc-linux-gnu"

%"struct.cv::detail::tracking::ClfMilBoost::Params" = type { i32, i32, float }
%"class.cv::detail::tracking::ClfMilBoost" = type <{ i32, %"struct.cv::detail::tracking::ClfMilBoost::Params", %"class.std::vector", %"class.std::vector.0", i32, [4 x i8] }>
%"class.std::vector" = type { %"struct.std::_Vector_base" }
%"struct.std::_Vector_base" = type { %"struct.std::_Vector_base<int, std::allocator<int>>::_Vector_impl" }
%"struct.std::_Vector_base<int, std::allocator<int>>::_Vector_impl" = type { %"struct.std::_Vector_base<int, std::allocator<int>>::_Vector_impl_data" }
%"struct.std::_Vector_base<int, std::allocator<int>>::_Vector_impl_data" = type { ptr, ptr, ptr }
%"class.std::vector.0" = type { %"struct.std::_Vector_base.1" }
%"struct.std::_Vector_base.1" = type { %"struct.std::_Vector_base<cv::detail::tracking::ClfOnlineStump *, std::allocator<cv::detail::tracking::ClfOnlineStump *>>::_Vector_impl" }
%"struct.std::_Vector_base<cv::detail::tracking::ClfOnlineStump *, std::allocator<cv::detail::tracking::ClfOnlineStump *>>::_Vector_impl" = type { %"struct.std::_Vector_base<cv::detail::tracking::ClfOnlineStump *, std::allocator<cv::detail::tracking::ClfOnlineStump *>>::_Vector_impl_data" }
%"struct.std::_Vector_base<cv::detail::tracking::ClfOnlineStump *, std::allocator<cv::detail::tracking::ClfOnlineStump *>>::_Vector_impl_data" = type { ptr, ptr, ptr }
%"class.cv::detail::tracking::ClfOnlineStump" = type { float, float, float, float, float, i32, float, float, float, float, float, i8, i32 }

@_ZN2cv6detail8tracking14ClfOnlineStumpC1Ei = hidden unnamed_addr alias void (ptr, i32), ptr @_ZN2cv6detail8tracking14ClfOnlineStumpC2Ei

; Function Attrs: mustprogress nounwind uwtable
define linkonce_odr hidden void @_ZNSt12_Destroy_auxILb1EE9__destroyIPPN2cv6detail8tracking14ClfOnlineStumpEEEvT_S8_(ptr noundef %0, ptr noundef %1) #0 comdat align 2 {
  %3 = alloca ptr, align 8
  %4 = alloca ptr, align 8
  store ptr %0, ptr %3, align 8, !tbaa !186
  store ptr %1, ptr %4, align 8, !tbaa !186
  ret void
}

; Function Attrs: inlinehint mustprogress uwtable
define linkonce_odr hidden void @_ZSt8_DestroyIPPN2cv6detail8tracking14ClfOnlineStumpEEvT_S6_(ptr noundef %0, ptr noundef %1) #10 comdat {
  %3 = alloca ptr, align 8
  %4 = alloca ptr, align 8
  store ptr %0, ptr %3, align 8, !tbaa !186
  store ptr %1, ptr %4, align 8, !tbaa !186
  %5 = load ptr, ptr %3, align 8, !tbaa !186
  %6 = load ptr, ptr %4, align 8, !tbaa !186
  call void @_ZNSt12_Destroy_auxILb1EE9__destroyIPPN2cv6detail8tracking14ClfOnlineStumpEEEvT_S8_(ptr noundef %5, ptr noundef %6)
  ret void
}

; Function Attrs: noinline noreturn nounwind uwtable
define linkonce_odr hidden void @__clang_call_terminate(ptr noundef %0) #4 comdat {
  %2 = call ptr @__cxa_begin_catch(ptr %0) #7
  call void @_ZSt9terminatev() #16
  unreachable
}

; Function Attrs: inlinehint mustprogress uwtable
define linkonce_odr hidden void @_ZSt8_DestroyIPPN2cv6detail8tracking14ClfOnlineStumpES4_EvT_S6_RSaIT0_E(ptr noundef %0, ptr noundef %1, ptr noundef nonnull align 1 dereferenceable(1) %2) #10 comdat {
  %4 = alloca ptr, align 8
  %5 = alloca ptr, align 8
  %6 = alloca ptr, align 8
  store ptr %0, ptr %4, align 8, !tbaa !186
  store ptr %1, ptr %5, align 8, !tbaa !186
  store ptr %2, ptr %6, align 8, !tbaa !158
  %7 = load ptr, ptr %4, align 8, !tbaa !186
  %8 = load ptr, ptr %5, align 8, !tbaa !186
  call void @_ZSt8_DestroyIPPN2cv6detail8tracking14ClfOnlineStumpEEvT_S6_(ptr noundef %7, ptr noundef %8)
  ret void
}

; Function Attrs: mustprogress nounwind uwtable
define linkonce_odr hidden noundef nonnull align 1 dereferenceable(1) ptr @_ZNSt12_Vector_baseIPN2cv6detail8tracking14ClfOnlineStumpESaIS4_EE19_M_get_Tp_allocatorEv(ptr noundef nonnull align 8 dereferenceable(24) %0) #0 comdat align 2 {
  %2 = alloca ptr, align 8
  store ptr %0, ptr %2, align 8, !tbaa !154
  %3 = load ptr, ptr %2, align 8
  %4 = getelementptr inbounds nuw %"struct.std::_Vector_base.1", ptr %3, i32 0, i32 0
  ret ptr %4
}

; Function Attrs: mustprogress nounwind uwtable
define linkonce_odr hidden void @_ZNSt6vectorIPN2cv6detail8tracking14ClfOnlineStumpESaIS4_EE15_M_erase_at_endEPS4_(ptr noundef nonnull align 8 dereferenceable(24) %0, ptr noundef %1) #0 comdat align 2 personality ptr @__gxx_personality_v0 {
  %3 = alloca ptr, align 8
  %4 = alloca ptr, align 8
  %5 = alloca i64, align 8
  store ptr %0, ptr %3, align 8, !tbaa !35
  store ptr %1, ptr %4, align 8, !tbaa !186
  %6 = load ptr, ptr %3, align 8
  call void @llvm.lifetime.start.p0(i64 8, ptr %5) #7
  %7 = getelementptr inbounds nuw %"struct.std::_Vector_base.1", ptr %6, i32 0, i32 0
  %8 = getelementptr inbounds nuw %"struct.std::_Vector_base<cv::detail::tracking::ClfOnlineStump *, std::allocator<cv::detail::tracking::ClfOnlineStump *>>::_Vector_impl_data", ptr %7, i32 0, i32 1
  %9 = load ptr, ptr %8, align 8, !tbaa !38
  %10 = load ptr, ptr %4, align 8, !tbaa !186
  %11 = ptrtoint ptr %9 to i64
  %12 = ptrtoint ptr %10 to i64
  %13 = sub i64 %11, %12
  %14 = sdiv exact i64 %13, 8
  store i64 %14, ptr %5, align 8, !tbaa !41
  %15 = load i64, ptr %5, align 8, !tbaa !41
  %16 = icmp ne i64 %15, 0
  br i1 %16, label %17, label %27

17:                                               ; preds = %2
  %18 = load ptr, ptr %4, align 8, !tbaa !186
  %19 = getelementptr inbounds nuw %"struct.std::_Vector_base.1", ptr %6, i32 0, i32 0
  %20 = getelementptr inbounds nuw %"struct.std::_Vector_base<cv::detail::tracking::ClfOnlineStump *, std::allocator<cv::detail::tracking::ClfOnlineStump *>>::_Vector_impl_data", ptr %19, i32 0, i32 1
  %21 = load ptr, ptr %20, align 8, !tbaa !38
  %22 = call noundef nonnull align 1 dereferenceable(1) ptr @_ZNSt12_Vector_baseIPN2cv6detail8tracking14ClfOnlineStumpESaIS4_EE19_M_get_Tp_allocatorEv(ptr noundef nonnull align 8 dereferenceable(24) %6) #7
  invoke void @_ZSt8_DestroyIPPN2cv6detail8tracking14ClfOnlineStumpES4_EvT_S6_RSaIT0_E(ptr noundef %18, ptr noundef %21, ptr noundef nonnull align 1 dereferenceable(1) %22)
          to label %23 unwind label %28

23:                                               ; preds = %17
  %24 = load ptr, ptr %4, align 8, !tbaa !186
  %25 = getelementptr inbounds nuw %"struct.std::_Vector_base.1", ptr %6, i32 0, i32 0
  %26 = getelementptr inbounds nuw %"struct.std::_Vector_base<cv::detail::tracking::ClfOnlineStump *, std::allocator<cv::detail::tracking::ClfOnlineStump *>>::_Vector_impl_data", ptr %25, i32 0, i32 1
  store ptr %24, ptr %26, align 8, !tbaa !38
  br label %27

27:                                               ; preds = %23, %2
  call void @llvm.lifetime.end.p0(i64 8, ptr %5) #7
  ret void

28:                                               ; preds = %17
  %29 = landingpad { ptr, i32 }
          catch ptr null
  %30 = extractvalue { ptr, i32 } %29, 0
  call void @__clang_call_terminate(ptr %30) #16
  unreachable
}

; Function Attrs: mustprogress nounwind uwtable
define linkonce_odr hidden noundef i64 @_ZNKSt6vectorIPN2cv6detail8tracking14ClfOnlineStumpESaIS4_EE4sizeEv(ptr noundef nonnull align 8 dereferenceable(24) %0) #0 comdat align 2 {
  %2 = alloca ptr, align 8
  store ptr %0, ptr %2, align 8, !tbaa !35
  %3 = load ptr, ptr %2, align 8
  %4 = getelementptr inbounds nuw %"struct.std::_Vector_base.1", ptr %3, i32 0, i32 0
  %5 = getelementptr inbounds nuw %"struct.std::_Vector_base<cv::detail::tracking::ClfOnlineStump *, std::allocator<cv::detail::tracking::ClfOnlineStump *>>::_Vector_impl_data", ptr %4, i32 0, i32 1
  %6 = load ptr, ptr %5, align 8, !tbaa !38
  %7 = getelementptr inbounds nuw %"struct.std::_Vector_base.1", ptr %3, i32 0, i32 0
  %8 = getelementptr inbounds nuw %"struct.std::_Vector_base<cv::detail::tracking::ClfOnlineStump *, std::allocator<cv::detail::tracking::ClfOnlineStump *>>::_Vector_impl_data", ptr %7, i32 0, i32 0
  %9 = load ptr, ptr %8, align 8, !tbaa !37
  %10 = ptrtoint ptr %6 to i64
  %11 = ptrtoint ptr %9 to i64
  %12 = sub i64 %10, %11
  %13 = sdiv exact i64 %12, 8
  ret i64 %13
}

; Function Attrs: mustprogress nounwind uwtable
define linkonce_odr hidden noundef nonnull align 8 dereferenceable(8) ptr @_ZNSt6vectorIPN2cv6detail8tracking14ClfOnlineStumpESaIS4_EEixEm(ptr noundef nonnull align 8 dereferenceable(24) %0, i64 noundef %1) #0 comdat align 2 {
  %3 = alloca ptr, align 8
  %4 = alloca i64, align 8
  store ptr %0, ptr %3, align 8, !tbaa !35
  store i64 %1, ptr %4, align 8, !tbaa !41
  %5 = load ptr, ptr %3, align 8
  %6 = getelementptr inbounds nuw %"struct.std::_Vector_base.1", ptr %5, i32 0, i32 0
  %7 = getelementptr inbounds nuw %"struct.std::_Vector_base<cv::detail::tracking::ClfOnlineStump *, std::allocator<cv::detail::tracking::ClfOnlineStump *>>::_Vector_impl_data", ptr %6, i32 0, i32 0
  %8 = load ptr, ptr %7, align 8, !tbaa !37
  %9 = load i64, ptr %4, align 8, !tbaa !41
  %10 = getelementptr inbounds nuw ptr, ptr %8, i64 %9
  ret ptr %10
}

; Function Attrs: mustprogress uwtable
define linkonce_odr hidden void @_ZNSt6vectorIPN2cv6detail8tracking14ClfOnlineStumpESaIS4_EE6resizeEm(ptr noundef nonnull align 8 dereferenceable(24) %0, i64 noundef %1) #1 comdat align 2 {
  %3 = alloca ptr, align 8
  %4 = alloca i64, align 8
  store ptr %0, ptr %3, align 8, !tbaa !35
  store i64 %1, ptr %4, align 8, !tbaa !41
  %5 = load ptr, ptr %3, align 8
  %6 = load i64, ptr %4, align 8, !tbaa !41
  %7 = call noundef i64 @_ZNKSt6vectorIPN2cv6detail8tracking14ClfOnlineStumpESaIS4_EE4sizeEv(ptr noundef nonnull align 8 dereferenceable(24) %5) #7
  %8 = icmp ugt i64 %6, %7
  br i1 %8, label %9, label %13

9:                                                ; preds = %2
  %10 = load i64, ptr %4, align 8, !tbaa !41
  %11 = call noundef i64 @_ZNKSt6vectorIPN2cv6detail8tracking14ClfOnlineStumpESaIS4_EE4sizeEv(ptr noundef nonnull align 8 dereferenceable(24) %5) #7
  %12 = sub i64 %10, %11
  call void @_ZNSt6vectorIPN2cv6detail8tracking14ClfOnlineStumpESaIS4_EE17_M_default_appendEm(ptr noundef nonnull align 8 dereferenceable(24) %5, i64 noundef %12)
  br label %24

13:                                               ; preds = %2
  %14 = load i64, ptr %4, align 8, !tbaa !41
  %15 = call noundef i64 @_ZNKSt6vectorIPN2cv6detail8tracking14ClfOnlineStumpESaIS4_EE4sizeEv(ptr noundef nonnull align 8 dereferenceable(24) %5) #7
  %16 = icmp ult i64 %14, %15
  br i1 %16, label %17, label %23

17:                                               ; preds = %13
  %18 = getelementptr inbounds nuw %"struct.std::_Vector_base.1", ptr %5, i32 0, i32 0
  %19 = getelementptr inbounds nuw %"struct.std::_Vector_base<cv::detail::tracking::ClfOnlineStump *, std::allocator<cv::detail::tracking::ClfOnlineStump *>>::_Vector_impl_data", ptr %18, i32 0, i32 0
  %20 = load ptr, ptr %19, align 8, !tbaa !37
  %21 = load i64, ptr %4, align 8, !tbaa !41
  %22 = getelementptr inbounds nuw ptr, ptr %20, i64 %21
  call void @_ZNSt6vectorIPN2cv6detail8tracking14ClfOnlineStumpESaIS4_EE15_M_erase_at_endEPS4_(ptr noundef nonnull align 8 dereferenceable(24) %5, ptr noundef %22) #7
  br label %23

23:                                               ; preds = %17, %13
  br label %24

24:                                               ; preds = %23, %9
  ret void
}

; Function Attrs: mustprogress uwtable
define void @_ZN2cv6detail8tracking11ClfMilBoost4initERKNS2_6ParamsE(ptr noundef nonnull align 8 dereferenceable(68) %0, ptr noundef nonnull align 4 dereferenceable(12) %1) #1 align 2 personality ptr @__gxx_personality_v0 {
  %3 = alloca ptr, align 8
  %4 = alloca ptr, align 8
  %5 = alloca i32, align 4
  %6 = alloca ptr, align 8
  %7 = alloca i32, align 4
  store ptr %0, ptr %3, align 8, !tbaa !14
  store ptr %1, ptr %4, align 8, !tbaa !3
  %8 = load ptr, ptr %3, align 8
  %9 = load ptr, ptr %4, align 8, !tbaa !3
  %10 = getelementptr inbounds nuw %"class.cv::detail::tracking::ClfMilBoost", ptr %8, i32 0, i32 1
  call void @llvm.memcpy.p0.p0.i64(ptr align 4 %10, ptr align 4 %9, i64 12, i1 false), !tbaa.struct !30
  %11 = getelementptr inbounds nuw %"class.cv::detail::tracking::ClfMilBoost", ptr %8, i32 0, i32 0
  store i32 0, ptr %11, align 8, !tbaa !16
  %12 = getelementptr inbounds nuw %"class.cv::detail::tracking::ClfMilBoost", ptr %8, i32 0, i32 3
  %13 = getelementptr inbounds nuw %"class.cv::detail::tracking::ClfMilBoost", ptr %8, i32 0, i32 1
  %14 = getelementptr inbounds nuw %"struct.cv::detail::tracking::ClfMilBoost::Params", ptr %13, i32 0, i32 1
  %15 = load i32, ptr %14, align 4, !tbaa !47
  %16 = sext i32 %15 to i64
  call void @_ZNSt6vectorIPN2cv6detail8tracking14ClfOnlineStumpESaIS4_EE6resizeEm(ptr noundef nonnull align 8 dereferenceable(24) %12, i64 noundef %16)
  call void @llvm.lifetime.start.p0(i64 4, ptr %5) #7
  store i32 0, ptr %5, align 4, !tbaa !31
  br label %17

17:                                               ; preds = %41, %2
  %18 = load i32, ptr %5, align 4, !tbaa !31
  %19 = getelementptr inbounds nuw %"class.cv::detail::tracking::ClfMilBoost", ptr %8, i32 0, i32 1
  %20 = getelementptr inbounds nuw %"struct.cv::detail::tracking::ClfMilBoost::Params", ptr %19, i32 0, i32 1
  %21 = load i32, ptr %20, align 4, !tbaa !47
  %22 = icmp slt i32 %18, %21
  br i1 %22, label %24, label %23

23:                                               ; preds = %17
  call void @llvm.lifetime.end.p0(i64 4, ptr %5) #7
  br label %48

24:                                               ; preds = %17
  %25 = call noalias noundef nonnull ptr @_Znwm(i64 noundef 52) #18
  %26 = load i32, ptr %5, align 4, !tbaa !31
  invoke void @_ZN2cv6detail8tracking14ClfOnlineStumpC1Ei(ptr noundef nonnull align 4 dereferenceable(52) %25, i32 noundef %26)
          to label %27 unwind label %44

27:                                               ; preds = %24
  %28 = getelementptr inbounds nuw %"class.cv::detail::tracking::ClfMilBoost", ptr %8, i32 0, i32 3
  %29 = load i32, ptr %5, align 4, !tbaa !31
  %30 = sext i32 %29 to i64
  %31 = call noundef nonnull align 8 dereferenceable(8) ptr @_ZNSt6vectorIPN2cv6detail8tracking14ClfOnlineStumpESaIS4_EEixEm(ptr noundef nonnull align 8 dereferenceable(24) %28, i64 noundef %30) #7
  store ptr %25, ptr %31, align 8, !tbaa !43
  %32 = getelementptr inbounds nuw %"class.cv::detail::tracking::ClfMilBoost", ptr %8, i32 0, i32 1
  %33 = getelementptr inbounds nuw %"struct.cv::detail::tracking::ClfMilBoost::Params", ptr %32, i32 0, i32 2
  %34 = load float, ptr %33, align 4, !tbaa !48
  %35 = getelementptr inbounds nuw %"class.cv::detail::tracking::ClfMilBoost", ptr %8, i32 0, i32 3
  %36 = load i32, ptr %5, align 4, !tbaa !31
  %37 = sext i32 %36 to i64
  %38 = call noundef nonnull align 8 dereferenceable(8) ptr @_ZNSt6vectorIPN2cv6detail8tracking14ClfOnlineStumpESaIS4_EEixEm(ptr noundef nonnull align 8 dereferenceable(24) %35, i64 noundef %37) #7
  %39 = load ptr, ptr %38, align 8, !tbaa !43
  %40 = getelementptr inbounds nuw %"class.cv::detail::tracking::ClfOnlineStump", ptr %39, i32 0, i32 10
  store float %34, ptr %40, align 4, !tbaa !49
  br label %41

41:                                               ; preds = %27
  %42 = load i32, ptr %5, align 4, !tbaa !31
  %43 = add nsw i32 %42, 1
  store i32 %43, ptr %5, align 4, !tbaa !31
  br label %17, !llvm.loop !52

44:                                               ; preds = %24
  %45 = landingpad { ptr, i32 }
          cleanup
  %46 = extractvalue { ptr, i32 } %45, 0
  store ptr %46, ptr %6, align 8
  %47 = extractvalue { ptr, i32 } %45, 1
  store i32 %47, ptr %7, align 4
  call void @_ZdlPv(ptr noundef %25) #17
  call void @llvm.lifetime.end.p0(i64 4, ptr %5) #7
  br label %50

48:                                               ; preds = %23
  %49 = getelementptr inbounds nuw %"class.cv::detail::tracking::ClfMilBoost", ptr %8, i32 0, i32 4
  store i32 0, ptr %49, align 8, !tbaa !29
  ret void

50:                                               ; preds = %44
  %51 = load ptr, ptr %6, align 8
  %52 = load i32, ptr %7, align 4
  %53 = insertvalue { ptr, i32 } poison, ptr %51, 0
  %54 = insertvalue { ptr, i32 } %53, i32 %52, 1
  resume { ptr, i32 } %54
}