; Function Attrs: mustprogress uwtable
define void @_ZN2cv6detail8tracking11ClfMilBoost4initERKNS2_6ParamsE(ptr noundef nonnull align 8 dereferenceable(68) initializes((0, 16)) %0, ptr noundef nonnull readonly align 4 captures(none) dereferenceable(12) %1) local_unnamed_addr #1 align 2 personality ptr @__gxx_personality_v0 {
  %3 = getelementptr inbounds nuw i8, ptr %0, i64 4
  tail call void @llvm.memcpy.p0.p0.i64(ptr noundef nonnull align 4 dereferenceable(12) %3, ptr noundef nonnull align 4 dereferenceable(12) %1, i64 12, i1 false), !tbaa.struct !25
  store i32 0, ptr %0, align 8, !tbaa !11
  %4 = getelementptr inbounds nuw i8, ptr %0, i64 40
  %5 = getelementptr inbounds nuw i8, ptr %0, i64 8
  %6 = load i32, ptr %5, align 8, !tbaa !36
  %7 = sext i32 %6 to i64
  %8 = getelementptr inbounds nuw i8, ptr %0, i64 48
  %9 = load ptr, ptr %8, align 8, !tbaa !31
  %10 = load ptr, ptr %4, align 8, !tbaa !28
  %11 = ptrtoint ptr %9 to i64
  %12 = ptrtoint ptr %10 to i64
  %13 = sub i64 %11, %12
  %14 = ashr exact i64 %13, 3
  %15 = icmp ult i64 %14, %7
  br i1 %15, label %16, label %18

16:                                               ; preds = %2
  %17 = sub nuw nsw i64 %7, %14
  tail call void @_ZNSt6vectorIPN2cv6detail8tracking14ClfOnlineStumpESaIS4_EE17_M_default_appendEm(ptr noundef nonnull align 8 dereferenceable(24) %4, i64 noundef %17)
  %.pre = load i32, ptr %5, align 8, !tbaa !36
  br label %_ZNSt6vectorIPN2cv6detail8tracking14ClfOnlineStumpESaIS4_EE6resizeEm.exit

18:                                               ; preds = %2
  %19 = icmp ugt i64 %14, %7
  br i1 %19, label %20, label %_ZNSt6vectorIPN2cv6detail8tracking14ClfOnlineStumpESaIS4_EE6resizeEm.exit

20:                                               ; preds = %18
  %21 = getelementptr inbounds nuw ptr, ptr %10, i64 %7
  %.not.i.i = icmp eq ptr %9, %21
  br i1 %.not.i.i, label %_ZNSt6vectorIPN2cv6detail8tracking14ClfOnlineStumpESaIS4_EE6resizeEm.exit, label %22

22:                                               ; preds = %20
  store ptr %21, ptr %8, align 8, !tbaa !31
  br label %_ZNSt6vectorIPN2cv6detail8tracking14ClfOnlineStumpESaIS4_EE6resizeEm.exit

_ZNSt6vectorIPN2cv6detail8tracking14ClfOnlineStumpESaIS4_EE6resizeEm.exit: ; preds = %16, %18, %20, %22
  %23 = phi i32 [ %.pre, %16 ], [ %6, %18 ], [ %6, %20 ], [ %6, %22 ]
  %24 = icmp sgt i32 %23, 0
  br i1 %24, label %.lr.ph, label %._crit_edge

.lr.ph:                                           ; preds = %_ZNSt6vectorIPN2cv6detail8tracking14ClfOnlineStumpESaIS4_EE6resizeEm.exit
  %25 = load ptr, ptr %4, align 8
  %26 = getelementptr inbounds nuw i8, ptr %0, i64 12
  %27 = load float, ptr %26, align 4
  %wide.trip.count = zext nneg i32 %23 to i64
  br label %29

._crit_edge:                                      ; preds = %29, %_ZNSt6vectorIPN2cv6detail8tracking14ClfOnlineStumpESaIS4_EE6resizeEm.exit
  %28 = getelementptr inbounds nuw i8, ptr %0, i64 64
  store i32 0, ptr %28, align 8, !tbaa !37
  ret void

29:                                               ; preds = %.lr.ph, %29
  %indvars.iv = phi i64 [ 0, %.lr.ph ], [ %indvars.iv.next, %29 ]
  %30 = tail call noalias noundef nonnull dereferenceable(52) ptr @_Znwm(i64 noundef 52) #21
  %31 = getelementptr inbounds nuw i8, ptr %30, i64 4
  %32 = getelementptr inbounds nuw i8, ptr %30, i64 8
  %33 = getelementptr inbounds nuw i8, ptr %30, i64 12
  %34 = getelementptr inbounds nuw i8, ptr %30, i64 40
  %35 = getelementptr inbounds nuw i8, ptr %30, i64 44
  %36 = getelementptr inbounds nuw i8, ptr %30, i64 48
  %37 = getelementptr inbounds nuw i8, ptr %30, i64 16
  tail call void @llvm.memset.p0.i64(ptr noundef nonnull align 4 dereferenceable(24) %37, i8 0, i64 24, i1 false)
  %38 = trunc nuw nsw i64 %indvars.iv to i32
  store i32 %38, ptr %36, align 4, !tbaa !38
  store float 0.000000e+00, ptr %30, align 4, !tbaa !41
  store float 0.000000e+00, ptr %31, align 4, !tbaa !42
  store float 1.000000e+00, ptr %32, align 4, !tbaa !43
  store float 1.000000e+00, ptr %33, align 4, !tbaa !44
  store i8 0, ptr %35, align 4, !tbaa !45
  %39 = getelementptr inbounds nuw ptr, ptr %25, i64 %indvars.iv
  store ptr %30, ptr %39, align 8, !tbaa !32
  store float %27, ptr %34, align 4, !tbaa !46
  %indvars.iv.next = add nuw nsw i64 %indvars.iv, 1
  %exitcond.not = icmp eq i64 %indvars.iv.next, %wide.trip.count
  br i1 %exitcond.not, label %._crit_edge, label %29, !llvm.loop !47
}